target datalayout = "e-m:e-p270:32:32-p271:32:32-p272:64:64-i64:64-i128:128-f80:128-n8:16:32:64-S128"
target triple = "x86_64-pc-linux-gnu"

%struct._asn1_ctx_t = type { i32, i32, i8, ptr, ptr, ptr, ptr, ptr, %struct.anon.0, %struct.anon.3, %struct.anon.4, ptr }
%struct.anon.0 = type { i32, i8, i8, i8, ptr, ptr, i32, i32, ptr, ptr, ptr, %union.anon }
%union.anon = type { %struct.anon.1 }
%struct.anon.1 = type { ptr }
%struct.anon.3 = type { ptr, ptr, ptr }
%struct.anon.4 = type { i32, i8, ptr, i32, i32, ptr, ptr, ptr, %union.anon.5 }
%union.anon.5 = type { %struct.anon.6 }
%struct.anon.6 = type { ptr }

@hf_mikey = internal global [71 x i32] zeroinitializer, align 16
@.str.301 = private unnamed_addr constant [8 x i8] c"Unknown\00", align 1
@.str.305 = private unnamed_addr constant [10 x i8] c" Type: %s\00", align 1

; Function Attrs: null_pointer_is_valid sspstrong uwtable
define internal i32 @dissect_payload_cert(ptr noundef %0, ptr noundef %1, ptr noundef %2, ptr noundef %3) #0 {
  %5 = alloca ptr, align 8
  %6 = alloca ptr, align 8
  %7 = alloca ptr, align 8
  %8 = alloca ptr, align 8
  %9 = alloca i32, align 4
  %10 = alloca i8, align 1
  %11 = alloca i16, align 2
  %12 = alloca ptr, align 8
  %13 = alloca %struct._asn1_ctx_t, align 8
  %14 = alloca ptr, align 8
  store ptr %0, ptr %5, align 8
  store ptr %1, ptr %6, align 8
  store ptr %2, ptr %7, align 8
  store ptr %3, ptr %8, align 8
  call void @llvm.lifetime.start.p0(i64 4, ptr %9) #5
  store i32 0, ptr %9, align 4
  call void @llvm.lifetime.start.p0(i64 1, ptr %10) #5
  call void @llvm.lifetime.start.p0(i64 2, ptr %11) #5
  call void @llvm.lifetime.start.p0(i64 8, ptr %12) #5
  call void @llvm.lifetime.start.p0(i64 208, ptr %13) #5
  %15 = load ptr, ptr %7, align 8
  call void @asn1_ctx_init(ptr noundef %13, i32 noundef 0, i1 noundef zeroext true, ptr noundef %15)
  %16 = load ptr, ptr %6, align 8
  %17 = load i32, ptr %9, align 4
  %18 = add i32 %17, 1
  %19 = call zeroext i8 @tvb_get_uint8(ptr noundef %16, i32 noundef %18)
  store i8 %19, ptr %10, align 1
  %20 = load ptr, ptr %6, align 8
  %21 = load i32, ptr %9, align 4
  %22 = add i32 %21, 2
  %23 = call zeroext i16 @tvb_get_ntohs(ptr noundef %20, i32 noundef %22)
  store i16 %23, ptr %11, align 2
  %24 = load ptr, ptr %6, align 8
  %25 = load i32, ptr %9, align 4
  %26 = add i32 %25, 4
  %27 = load i16, ptr %11, align 2
  %28 = zext i16 %27 to i32
  call void @tvb_ensure_bytes_exist(ptr noundef %24, i32 noundef %26, i32 noundef %28)
  %29 = load ptr, ptr %8, align 8
  %30 = icmp ne ptr %29, null
  br i1 %30, label %31, label %46

31:                                               ; preds = %4
  call void @llvm.lifetime.start.p0(i64 8, ptr %14) #5
  %32 = load ptr, ptr %8, align 8
  %33 = call ptr @proto_tree_get_parent(ptr noundef %32)
  store ptr %33, ptr %14, align 8
  %34 = load ptr, ptr %8, align 8
  %35 = load i32, ptr getelementptr ([71 x i32], ptr @hf_mikey, i64 0, i64 32), align 16
  %36 = load ptr, ptr %6, align 8
  %37 = call ptr @proto_tree_add_item(ptr noundef %34, i32 noundef %35, ptr noundef %36, i32 noundef 1, i32 noundef 1, i32 noundef 0)
  %38 = load ptr, ptr %8, align 8
  %39 = load i32, ptr getelementptr ([71 x i32], ptr @hf_mikey, i64 0, i64 33), align 4
  %40 = load ptr, ptr %6, align 8
  %41 = call ptr @proto_tree_add_item(ptr noundef %38, i32 noundef %39, ptr noundef %40, i32 noundef 1, i32 noundef 2, i32 noundef 0)
  %42 = load ptr, ptr %14, align 8
  %43 = load i8, ptr %10, align 1
  %44 = zext i8 %43 to i32
  %45 = call ptr @val_to_str_const(i32 noundef %44, ptr noundef @cert_type_vals, ptr noundef @.str.301)
  call void (ptr, ptr, ...) @proto_item_append_text(ptr noundef %42, ptr noundef @.str.305, ptr noundef %45)
  call void @llvm.lifetime.end.p0(i64 8, ptr %14) #5
  br label %46

46:                                               ; preds = %31, %4
  %47 = load ptr, ptr %6, align 8
  %48 = load i32, ptr %9, align 4
  %49 = add i32 %48, 4
  %50 = load i16, ptr %11, align 2
  %51 = zext i16 %50 to i32
  %52 = call ptr @tvb_new_subset_length(ptr noundef %47, i32 noundef %49, i32 noundef %51)
  store ptr %52, ptr %12, align 8
  %53 = load ptr, ptr %12, align 8
  %54 = load ptr, ptr %8, align 8
  %55 = load i32, ptr getelementptr ([71 x i32], ptr @hf_mikey, i64 0, i64 34), align 8
  %56 = call i32 @dissect_x509af_Certificate(i1 noundef zeroext false, ptr noundef %53, i32 noundef 0, ptr noundef %13, ptr noundef %54, i32 noundef %55)
  %57 = load i16, ptr %11, align 2
  %58 = zext i16 %57 to i32
  %59 = add i32 4, %58
  call void @llvm.lifetime.end.p0(i64 208, ptr %13) #5
  call void @llvm.lifetime.end.p0(i64 8, ptr %12) #5
  call void @llvm.lifetime.end.p0(i64 2, ptr %11) #5
  call void @llvm.lifetime.end.p0(i64 1, ptr %10) #5
  call void @llvm.lifetime.end.p0(i64 4, ptr %9) #5
  ret i32 %59
}