; Function Attrs: null_pointer_is_valid sspstrong uwtable
define internal range(i32 4, 65540) i32 @dissect_payload_cert(ptr readnone captures(none) %0, ptr noundef %1, ptr noundef %2, ptr noundef %3) #0 {
  %5 = alloca %struct._asn1_ctx_t, align 8
  call void @llvm.lifetime.start.p0(i64 208, ptr nonnull %5) #5
  call void @asn1_ctx_init(ptr noundef nonnull %5, i32 noundef 0, i1 noundef zeroext true, ptr noundef %2)
  %6 = call zeroext i8 @tvb_get_uint8(ptr noundef %1, i32 noundef 1)
  %7 = call zeroext i16 @tvb_get_ntohs(ptr noundef %1, i32 noundef 2)
  %8 = zext i16 %7 to i32
  call void @tvb_ensure_bytes_exist(ptr noundef %1, i32 noundef 4, i32 noundef %8)
  %.not = icmp eq ptr %3, null
  br i1 %.not, label %17, label %9

9:                                                ; preds = %4
  %10 = call ptr @proto_tree_get_parent(ptr noundef nonnull %3)
  %11 = load i32, ptr getelementptr inbounds nuw (i8, ptr @hf_mikey, i64 128), align 16
  %12 = call ptr @proto_tree_add_item(ptr noundef nonnull %3, i32 noundef %11, ptr noundef %1, i32 noundef 1, i32 noundef 1, i32 noundef 0)
  %13 = load i32, ptr getelementptr inbounds nuw (i8, ptr @hf_mikey, i64 132), align 4
  %14 = call ptr @proto_tree_add_item(ptr noundef nonnull %3, i32 noundef %13, ptr noundef %1, i32 noundef 1, i32 noundef 2, i32 noundef 0)
  %15 = zext i8 %6 to i32
  %16 = call ptr @val_to_str_const(i32 noundef %15, ptr noundef nonnull @cert_type_vals, ptr noundef nonnull @.str.301)
  call void (ptr, ptr, ...) @proto_item_append_text(ptr noundef %10, ptr noundef nonnull @.str.305, ptr noundef %16)
  br label %17

17:                                               ; preds = %9, %4
  %18 = call ptr @tvb_new_subset_length(ptr noundef %1, i32 noundef 4, i32 noundef %8)
  %19 = load i32, ptr getelementptr inbounds nuw (i8, ptr @hf_mikey, i64 136), align 8
  %20 = call i32 @dissect_x509af_Certificate(i1 noundef zeroext false, ptr noundef %18, i32 noundef 0, ptr noundef nonnull %5, ptr noundef %3, i32 noundef %19)
  %21 = add nuw nsw i32 %8, 4
  call void @llvm.lifetime.end.p0(i64 208, ptr nonnull %5) #5
  ret i32 %21
}